target datalayout = "e-m:e-p270:32:32-p271:32:32-p272:64:64-i64:64-i128:128-f80:128-n8:16:32:64-S128"
target triple = "x86_64-pc-linux-gnu"

%struct.slurmctld_rpc_t = type { i16, ptr, ptr, %struct.slurmctld_lock_t, ptr, i8, i8, i8, i8, i8, i32, i32, i16, i16, i32, i64, %union.pthread_cond_t, %union.pthread_mutex_t, ptr, i16, i64, i16, i16 }
%struct.slurmctld_lock_t = type { i32, i32, i32, i32, i32 }
%union.pthread_cond_t = type { %struct.__pthread_cond_s }
%struct.__pthread_cond_s = type { %union.__atomic_wide_counter, %union.__atomic_wide_counter, [2 x i32], [2 x i32], i32, i32, [2 x i32] }
%union.__atomic_wide_counter = type { i64 }
%union.pthread_mutex_t = type { %struct.__pthread_mutex_s }
%struct.__pthread_mutex_s = type { i32, i32, i32, i32, i32, i16, i16, %struct.__pthread_internal_list }
%struct.__pthread_internal_list = type { ptr, ptr }
%struct.slurm_msg = type { %struct.sockaddr_storage, ptr, i32, i32, i32, i8, i32, i8, i32, ptr, ptr, i32, ptr, ptr, i16, i8, i16, i16, %struct.forward, ptr, %struct.sockaddr_storage, ptr }
%struct.forward = type { %struct.slurm_node_alias_addrs_t, i16, i16, ptr, i32, i16, i16 }
%struct.slurm_node_alias_addrs_t = type { i64, ptr, ptr, i32, ptr }
%struct.sockaddr_storage = type { i16, [118 x i8], i64 }

@enabled = dso_local global i8 1, align 1
@slurmctld_rpcs = external global [0 x %struct.slurmctld_rpc_t], align 8
@.str.11 = private unnamed_addr constant [29 x i8] c"%s: pthread_mutex_lock(): %m\00", align 1
@.str.12 = private unnamed_addr constant [36 x i8] c"%s:%d %s: pthread_cond_signal(): %m\00", align 1
@.str.13 = private unnamed_addr constant [12 x i8] c"rpc_queue.c\00", align 1
@.str.14 = private unnamed_addr constant [31 x i8] c"%s: pthread_mutex_unlock(): %m\00", align 1
@__func__.rpc_enqueue = private unnamed_addr constant [12 x i8] c"rpc_enqueue\00", align 1

; Function Attrs: nounwind uwtable
define dso_local i32 @rpc_enqueue(ptr noundef %0) #0 {
  %2 = alloca i32, align 4
  %3 = alloca ptr, align 8
  %4 = alloca ptr, align 8
  %5 = alloca i32, align 4
  %6 = alloca i32, align 4
  %7 = alloca i32, align 4
  %8 = alloca i32, align 4
  %9 = alloca i32, align 4
  %10 = alloca i32, align 4
  %11 = alloca i32, align 4
  store ptr %0, ptr %3, align 8
  %12 = load i8, ptr @enabled, align 1, !range !8, !noundef !9
  %13 = trunc i8 %12 to i1
  br i1 %13, label %15, label %14

14:                                               ; preds = %1
  store i32 2036, ptr %2, align 4
  br label %156

15:                                               ; preds = %1
  call void @llvm.lifetime.start.p0(i64 8, ptr %4) #7
  store ptr @slurmctld_rpcs, ptr %4, align 8
  br label %16

16:                                               ; preds = %150, %15
  %17 = load ptr, ptr %4, align 8
  %18 = getelementptr inbounds nuw %struct.slurmctld_rpc_t, ptr %17, i32 0, i32 0
  %19 = load i16, ptr %18, align 8
  %20 = icmp ne i16 %19, 0
  br i1 %20, label %22, label %21

21:                                               ; preds = %16
  store i32 2, ptr %5, align 4
  br label %153

22:                                               ; preds = %16
  %23 = load ptr, ptr %4, align 8
  %24 = getelementptr inbounds nuw %struct.slurmctld_rpc_t, ptr %23, i32 0, i32 0
  %25 = load i16, ptr %24, align 8
  %26 = zext i16 %25 to i32
  %27 = load ptr, ptr %3, align 8
  %28 = getelementptr inbounds nuw %struct.slurm_msg, ptr %27, i32 0, i32 16
  %29 = load i16, ptr %28, align 4
  %30 = zext i16 %29 to i32
  %31 = icmp eq i32 %26, %30
  br i1 %31, label %32, label %149

32:                                               ; preds = %22
  %33 = load ptr, ptr %4, align 8
  %34 = getelementptr inbounds nuw %struct.slurmctld_rpc_t, ptr %33, i32 0, i32 6
  %35 = load i8, ptr %34, align 1, !range !8, !noundef !9
  %36 = trunc i8 %35 to i1
  br i1 %36, label %38, label %37

37:                                               ; preds = %32
  store i32 2, ptr %5, align 4
  br label %153

38:                                               ; preds = %32
  %39 = load ptr, ptr %4, align 8
  %40 = getelementptr inbounds nuw %struct.slurmctld_rpc_t, ptr %39, i32 0, i32 12
  %41 = load i16, ptr %40, align 8
  %42 = icmp ne i16 %41, 0
  br i1 %42, label %43, label %107

43:                                               ; preds = %38
  br label %44

44:                                               ; preds = %43
  call void @llvm.lifetime.start.p0(i64 4, ptr %6) #7
  %45 = load ptr, ptr %4, align 8
  %46 = getelementptr inbounds nuw %struct.slurmctld_rpc_t, ptr %45, i32 0, i32 17
  %47 = call i32 @pthread_mutex_lock(ptr noundef %46) #7
  store i32 %47, ptr %6, align 4
  %48 = load i32, ptr %6, align 4
  %49 = icmp ne i32 %48, 0
  br i1 %49, label %50, label %53

50:                                               ; preds = %44
  %51 = load i32, ptr %6, align 4
  %52 = call ptr @__errno_location() #8
  store i32 %51, ptr %52, align 4
  call void (ptr, ...) @fatal_abort(ptr noundef @.str.11, ptr noundef @__func__.rpc_enqueue) #9
  unreachable

53:                                               ; preds = %44
  call void @llvm.lifetime.end.p0(i64 4, ptr %6) #7
  br label %54

54:                                               ; preds = %53
  br label %55

55:                                               ; preds = %54
  %56 = load ptr, ptr %4, align 8
  %57 = getelementptr inbounds nuw %struct.slurmctld_rpc_t, ptr %56, i32 0, i32 19
  %58 = load i16, ptr %57, align 8
  %59 = zext i16 %58 to i32
  %60 = load ptr, ptr %4, align 8
  %61 = getelementptr inbounds nuw %struct.slurmctld_rpc_t, ptr %60, i32 0, i32 12
  %62 = load i16, ptr %61, align 8
  %63 = zext i16 %62 to i32
  %64 = icmp sge i32 %59, %63
  br i1 %64, label %65, label %89

65:                                               ; preds = %55
  %66 = load ptr, ptr %4, align 8
  %67 = getelementptr inbounds nuw %struct.slurmctld_rpc_t, ptr %66, i32 0, i32 20
  %68 = load i64, ptr %67, align 8
  %69 = add i64 %68, 1
  store i64 %69, ptr %67, align 8
  %70 = load ptr, ptr %4, align 8
  call void @record_rpc_queue_stats(ptr noundef %70)
  br label %71

71:                                               ; preds = %65
  call void @llvm.lifetime.start.p0(i64 4, ptr %7) #7
  %72 = load ptr, ptr %4, align 8
  %73 = getelementptr inbounds nuw %struct.slurmctld_rpc_t, ptr %72, i32 0, i32 17
  %74 = call i32 @pthread_mutex_unlock(ptr noundef %73) #7
  store i32 %74, ptr %7, align 4
  %75 = load i32, ptr %7, align 4
  %76 = icmp ne i32 %75, 0
  br i1 %76, label %77, label %80

77:                                               ; preds = %71
  %78 = load i32, ptr %7, align 4
  %79 = call ptr @__errno_location() #8
  store i32 %78, ptr %79, align 4
  call void (ptr, ...) @fatal_abort(ptr noundef @.str.14, ptr noundef @__func__.rpc_enqueue) #9
  unreachable

80:                                               ; preds = %71
  call void @llvm.lifetime.end.p0(i64 4, ptr %7) #7
  br label %81

81:                                               ; preds = %80
  br label %82

82:                                               ; preds = %81
  %83 = load ptr, ptr %4, align 8
  %84 = getelementptr inbounds nuw %struct.slurmctld_rpc_t, ptr %83, i32 0, i32 7
  %85 = load i8, ptr %84, align 2, !range !8, !noundef !9
  %86 = trunc i8 %85 to i1
  br i1 %86, label %87, label %88

87:                                               ; preds = %82
  store i32 1805, ptr %2, align 4
  store i32 1, ptr %5, align 4
  br label %153

88:                                               ; preds = %82
  store i32 1804, ptr %2, align 4
  store i32 1, ptr %5, align 4
  br label %153

89:                                               ; preds = %55
  %90 = load ptr, ptr %4, align 8
  %91 = getelementptr inbounds nuw %struct.slurmctld_rpc_t, ptr %90, i32 0, i32 19
  %92 = load i16, ptr %91, align 8
  %93 = add i16 %92, 1
  store i16 %93, ptr %91, align 8
  %94 = load ptr, ptr %4, align 8
  call void @record_rpc_queue_stats(ptr noundef %94)
  br label %95

95:                                               ; preds = %89
  call void @llvm.lifetime.start.p0(i64 4, ptr %8) #7
  %96 = load ptr, ptr %4, align 8
  %97 = getelementptr inbounds nuw %struct.slurmctld_rpc_t, ptr %96, i32 0, i32 17
  %98 = call i32 @pthread_mutex_unlock(ptr noundef %97) #7
  store i32 %98, ptr %8, align 4
  %99 = load i32, ptr %8, align 4
  %100 = icmp ne i32 %99, 0
  br i1 %100, label %101, label %104

101:                                              ; preds = %95
  %102 = load i32, ptr %8, align 4
  %103 = call ptr @__errno_location() #8
  store i32 %102, ptr %103, align 4
  call void (ptr, ...) @fatal_abort(ptr noundef @.str.14, ptr noundef @__func__.rpc_enqueue) #9
  unreachable

104:                                              ; preds = %95
  call void @llvm.lifetime.end.p0(i64 4, ptr %8) #7
  br label %105

105:                                              ; preds = %104
  br label %106

106:                                              ; preds = %105
  br label %107

107:                                              ; preds = %106, %38
  %108 = load ptr, ptr %4, align 8
  %109 = getelementptr inbounds nuw %struct.slurmctld_rpc_t, ptr %108, i32 0, i32 18
  %110 = load ptr, ptr %109, align 8
  %111 = load ptr, ptr %3, align 8
  call void @list_enqueue(ptr noundef %110, ptr noundef %111)
  br label %112

112:                                              ; preds = %107
  call void @llvm.lifetime.start.p0(i64 4, ptr %9) #7
  %113 = load ptr, ptr %4, align 8
  %114 = getelementptr inbounds nuw %struct.slurmctld_rpc_t, ptr %113, i32 0, i32 17
  %115 = call i32 @pthread_mutex_lock(ptr noundef %114) #7
  store i32 %115, ptr %9, align 4
  %116 = load i32, ptr %9, align 4
  %117 = icmp ne i32 %116, 0
  br i1 %117, label %118, label %121

118:                                              ; preds = %112
  %119 = load i32, ptr %9, align 4
  %120 = call ptr @__errno_location() #8
  store i32 %119, ptr %120, align 4
  call void (ptr, ...) @fatal_abort(ptr noundef @.str.11, ptr noundef @__func__.rpc_enqueue) #9
  unreachable

121:                                              ; preds = %112
  call void @llvm.lifetime.end.p0(i64 4, ptr %9) #7
  br label %122

122:                                              ; preds = %121
  br label %123

123:                                              ; preds = %122
  br label %124

124:                                              ; preds = %123
  call void @llvm.lifetime.start.p0(i64 4, ptr %10) #7
  %125 = load ptr, ptr %4, align 8
  %126 = getelementptr inbounds nuw %struct.slurmctld_rpc_t, ptr %125, i32 0, i32 16
  %127 = call i32 @pthread_cond_signal(ptr noundef %126) #7
  store i32 %127, ptr %10, align 4
  %128 = load i32, ptr %10, align 4
  %129 = icmp ne i32 %128, 0
  br i1 %129, label %130, label %134

130:                                              ; preds = %124
  %131 = load i32, ptr %10, align 4
  %132 = call ptr @__errno_location() #8
  store i32 %131, ptr %132, align 4
  %133 = call i32 (ptr, ...) @error(ptr noundef @.str.12, ptr noundef @.str.13, i32 noundef 377, ptr noundef @__func__.rpc_enqueue)
  br label %134

134:                                              ; preds = %130, %124
  call void @llvm.lifetime.end.p0(i64 4, ptr %10) #7
  br label %135

135:                                              ; preds = %134
  br label %136

136:                                              ; preds = %135
  br label %137

137:                                              ; preds = %136
  call void @llvm.lifetime.start.p0(i64 4, ptr %11) #7
  %138 = load ptr, ptr %4, align 8
  %139 = getelementptr inbounds nuw %struct.slurmctld_rpc_t, ptr %138, i32 0, i32 17
  %140 = call i32 @pthread_mutex_unlock(ptr noundef %139) #7
  store i32 %140, ptr %11, align 4
  %141 = load i32, ptr %11, align 4
  %142 = icmp ne i32 %141, 0
  br i1 %142, label %143, label %146

143:                                              ; preds = %137
  %144 = load i32, ptr %11, align 4
  %145 = call ptr @__errno_location() #8
  store i32 %144, ptr %145, align 4
  call void (ptr, ...) @fatal_abort(ptr noundef @.str.14, ptr noundef @__func__.rpc_enqueue) #9
  unreachable

146:                                              ; preds = %137
  call void @llvm.lifetime.end.p0(i64 4, ptr %11) #7
  br label %147

147:                                              ; preds = %146
  br label %148

148:                                              ; preds = %147
  store i32 0, ptr %2, align 4
  store i32 1, ptr %5, align 4
  br label %153

149:                                              ; preds = %22
  br label %150

150:                                              ; preds = %149
  %151 = load ptr, ptr %4, align 8
  %152 = getelementptr inbounds nuw %struct.slurmctld_rpc_t, ptr %151, i32 1
  store ptr %152, ptr %4, align 8
  br label %16, !llvm.loop !16

153:                                              ; preds = %148, %88, %87, %37, %21
  call void @llvm.lifetime.end.p0(i64 8, ptr %4) #7
  %154 = load i32, ptr %5, align 4
  switch i32 %154, label %158 [
    i32 2, label %155
    i32 1, label %156
  ]

155:                                              ; preds = %153
  store i32 2036, ptr %2, align 4
  br label %156

156:                                              ; preds = %155, %153, %14
  %157 = load i32, ptr %2, align 4
  ret i32 %157

158:                                              ; preds = %153
  unreachable
}