; Function Attrs: nounwind uwtable
define dso_local range(i32 0, 2037) i32 @rpc_enqueue(ptr noundef %0) local_unnamed_addr #0 {
  %2 = load i8, ptr @enabled, align 1, !range !8, !noundef !9
  %3 = trunc nuw i8 %2 to i1
  br i1 %3, label %.preheader, label %.loopexit

.preheader:                                       ; preds = %1
  %4 = load i16, ptr @slurmctld_rpcs, align 8
  %.not52 = icmp eq i16 %4, 0
  br i1 %.not52, label %.loopexit, label %.lr.ph

.lr.ph:                                           ; preds = %.preheader
  %5 = getelementptr inbounds nuw i8, ptr %0, i64 212
  %6 = load i16, ptr %5, align 4
  br label %7

7:                                                ; preds = %.lr.ph, %59
  %8 = phi i16 [ %4, %.lr.ph ], [ %61, %59 ]
  %.03453 = phi ptr [ @slurmctld_rpcs, %.lr.ph ], [ %60, %59 ]
  %9 = icmp eq i16 %8, %6
  br i1 %9, label %10, label %59

10:                                               ; preds = %7
  %11 = getelementptr inbounds nuw i8, ptr %.03453, i64 57
  %12 = load i8, ptr %11, align 1, !range !8, !noundef !9
  %13 = trunc nuw i8 %12 to i1
  br i1 %13, label %14, label %.loopexit

14:                                               ; preds = %10
  %15 = getelementptr inbounds nuw i8, ptr %.03453, i64 72
  %16 = load i16, ptr %15, align 8
  %.not43 = icmp eq i16 %16, 0
  br i1 %.not43, label %42, label %17

17:                                               ; preds = %14
  %18 = getelementptr inbounds nuw i8, ptr %.03453, i64 136
  %19 = tail call i32 @pthread_mutex_lock(ptr noundef nonnull %18) #9
  %.not44 = icmp eq i32 %19, 0
  br i1 %.not44, label %22, label %20

20:                                               ; preds = %17
  %21 = tail call ptr @__errno_location() #11
  store i32 %19, ptr %21, align 4
  tail call void (ptr, ...) @fatal_abort(ptr noundef nonnull @.str.11, ptr noundef nonnull @__func__.rpc_enqueue) #10
  unreachable

22:                                               ; preds = %17
  %23 = getelementptr inbounds nuw i8, ptr %.03453, i64 184
  %24 = load i16, ptr %23, align 8
  %25 = load i16, ptr %15, align 8
  %.not45 = icmp ult i16 %24, %25
  br i1 %.not45, label %37, label %26

26:                                               ; preds = %22
  %27 = getelementptr inbounds nuw i8, ptr %.03453, i64 192
  %28 = load i64, ptr %27, align 8
  %29 = add i64 %28, 1
  store i64 %29, ptr %27, align 8
  tail call void @record_rpc_queue_stats(ptr noundef nonnull %.03453) #9
  %30 = tail call i32 @pthread_mutex_unlock(ptr noundef nonnull %18) #9
  %.not50 = icmp eq i32 %30, 0
  br i1 %.not50, label %33, label %31

31:                                               ; preds = %26
  %32 = tail call ptr @__errno_location() #11
  store i32 %30, ptr %32, align 4
  tail call void (ptr, ...) @fatal_abort(ptr noundef nonnull @.str.14, ptr noundef nonnull @__func__.rpc_enqueue) #10
  unreachable

33:                                               ; preds = %26
  %34 = getelementptr inbounds nuw i8, ptr %.03453, i64 58
  %35 = load i8, ptr %34, align 2, !range !8, !noundef !9
  %36 = trunc nuw i8 %35 to i1
  %. = select i1 %36, i32 1805, i32 1804
  br label %.loopexit

37:                                               ; preds = %22
  %38 = add nuw i16 %24, 1
  store i16 %38, ptr %23, align 8
  tail call void @record_rpc_queue_stats(ptr noundef nonnull %.03453) #9
  %39 = tail call i32 @pthread_mutex_unlock(ptr noundef nonnull %18) #9
  %.not46 = icmp eq i32 %39, 0
  br i1 %.not46, label %42, label %40

40:                                               ; preds = %37
  %41 = tail call ptr @__errno_location() #11
  store i32 %39, ptr %41, align 4
  tail call void (ptr, ...) @fatal_abort(ptr noundef nonnull @.str.14, ptr noundef nonnull @__func__.rpc_enqueue) #10
  unreachable

42:                                               ; preds = %37, %14
  %43 = getelementptr inbounds nuw i8, ptr %.03453, i64 176
  %44 = load ptr, ptr %43, align 8
  tail call void @list_enqueue(ptr noundef %44, ptr noundef nonnull %0) #9
  %45 = getelementptr inbounds nuw i8, ptr %.03453, i64 136
  %46 = tail call i32 @pthread_mutex_lock(ptr noundef nonnull %45) #9
  %.not47 = icmp eq i32 %46, 0
  br i1 %.not47, label %49, label %47

47:                                               ; preds = %42
  %48 = tail call ptr @__errno_location() #11
  store i32 %46, ptr %48, align 4
  tail call void (ptr, ...) @fatal_abort(ptr noundef nonnull @.str.11, ptr noundef nonnull @__func__.rpc_enqueue) #10
  unreachable

49:                                               ; preds = %42
  %50 = getelementptr inbounds nuw i8, ptr %.03453, i64 88
  %51 = tail call i32 @pthread_cond_signal(ptr noundef nonnull %50) #9
  %.not48 = icmp eq i32 %51, 0
  br i1 %.not48, label %55, label %52

52:                                               ; preds = %49
  %53 = tail call ptr @__errno_location() #11
  store i32 %51, ptr %53, align 4
  %54 = tail call i32 (ptr, ...) @error(ptr noundef nonnull @.str.12, ptr noundef nonnull @.str.13, i32 noundef 377, ptr noundef nonnull @__func__.rpc_enqueue) #9
  br label %55

55:                                               ; preds = %52, %49
  %56 = tail call i32 @pthread_mutex_unlock(ptr noundef nonnull %45) #9
  %.not49 = icmp eq i32 %56, 0
  br i1 %.not49, label %.loopexit, label %57

57:                                               ; preds = %55
  %58 = tail call ptr @__errno_location() #11
  store i32 %56, ptr %58, align 4
  tail call void (ptr, ...) @fatal_abort(ptr noundef nonnull @.str.14, ptr noundef nonnull @__func__.rpc_enqueue) #10
  unreachable

59:                                               ; preds = %7
  %60 = getelementptr inbounds nuw i8, ptr %.03453, i64 208
  %61 = load i16, ptr %60, align 8
  %.not = icmp eq i16 %61, 0
  br i1 %.not, label %.loopexit, label %7, !llvm.loop !16

.loopexit:                                        ; preds = %59, %.preheader, %10, %33, %55, %1
  %.0 = phi i32 [ 2036, %1 ], [ 2036, %10 ], [ %., %33 ], [ 0, %55 ], [ 2036, %.preheader ], [ 2036, %59 ]
  ret i32 %.0
}